target datalayout = "e-m:e-p270:32:32-p271:32:32-p272:64:64-i64:64-i128:128-f80:128-n8:16:32:64-S128"
target triple = "x86_64-pc-linux-gnu"

%struct.PyMutex = type { i8 }
%struct._queues = type { ptr, ptr, i64, i64 }
%struct.globals = type { %struct.PyMutex, i32, %struct._queues }
%struct._queue = type { i64, ptr, i32, %struct._queueitems, %struct.anon.0 }
%struct._queueitems = type { i64, i64, ptr, ptr }
%struct.anon.0 = type { i32, i32 }
%struct._queueref = type { ptr, i64, i64, ptr }
%struct._queueitem = type { i64, ptr, i32, i32, ptr }

@_globals = internal global { %struct.PyMutex, [3 x i8], i32, %struct._queues } zeroinitializer, align 8

; Function Attrs: nounwind uwtable
define internal i32 @_release_xid_data(ptr noundef %0, i32 noundef %1) #0 {
  %3 = alloca ptr, align 8
  %4 = alloca i32, align 4
  %5 = alloca i32, align 4
  %6 = alloca ptr, align 8
  %7 = alloca i32, align 4
  store ptr %0, ptr %3, align 8, !tbaa !66
  store i32 %1, ptr %4, align 4, !tbaa !9
  call void @llvm.lifetime.start.p0(i64 4, ptr %5) #8
  %8 = load i32, ptr %4, align 4, !tbaa !9
  %9 = and i32 %8, 1
  store i32 %9, ptr %5, align 4, !tbaa !9
  call void @llvm.lifetime.start.p0(i64 8, ptr %6) #8
  %10 = load i32, ptr %5, align 4, !tbaa !9
  %11 = icmp ne i32 %10, 0
  br i1 %11, label %12, label %14

12:                                               ; preds = %2
  %13 = call ptr @PyErr_GetRaisedException()
  store ptr %13, ptr %6, align 8, !tbaa !3
  br label %14

14:                                               ; preds = %12, %2
  call void @llvm.lifetime.start.p0(i64 4, ptr %7) #8
  %15 = load i32, ptr %4, align 4, !tbaa !9
  %16 = and i32 %15, 2
  %17 = icmp ne i32 %16, 0
  br i1 %17, label %18, label %21

18:                                               ; preds = %14
  %19 = load ptr, ptr %3, align 8, !tbaa !66
  %20 = call i32 @_PyXIData_ReleaseAndRawFree(ptr noundef %19)
  store i32 %20, ptr %7, align 4, !tbaa !9
  br label %24

21:                                               ; preds = %14
  %22 = load ptr, ptr %3, align 8, !tbaa !66
  %23 = call i32 @_PyXIData_Release(ptr noundef %22)
  store i32 %23, ptr %7, align 4, !tbaa !9
  br label %24

24:                                               ; preds = %21, %18
  %25 = load i32, ptr %7, align 4, !tbaa !9
  %26 = icmp slt i32 %25, 0
  br i1 %26, label %27, label %32

27:                                               ; preds = %24
  %28 = load i32, ptr %5, align 4, !tbaa !9
  %29 = icmp ne i32 %28, 0
  br i1 %29, label %30, label %31

30:                                               ; preds = %27
  call void @PyErr_Clear()
  br label %31

31:                                               ; preds = %30, %27
  br label %32

32:                                               ; preds = %31, %24
  %33 = load i32, ptr %4, align 4, !tbaa !9
  %34 = and i32 %33, 2
  %35 = icmp ne i32 %34, 0
  br i1 %35, label %36, label %37

36:                                               ; preds = %32
  br label %37

37:                                               ; preds = %36, %32
  %38 = load i32, ptr %5, align 4, !tbaa !9
  %39 = icmp ne i32 %38, 0
  br i1 %39, label %40, label %42

40:                                               ; preds = %37
  %41 = load ptr, ptr %6, align 8, !tbaa !3
  call void @PyErr_SetRaisedException(ptr noundef %41)
  br label %42

42:                                               ; preds = %40, %37
  %43 = load i32, ptr %7, align 4, !tbaa !9
  call void @llvm.lifetime.end.p0(i64 4, ptr %7) #8
  call void @llvm.lifetime.end.p0(i64 8, ptr %6) #8
  call void @llvm.lifetime.end.p0(i64 4, ptr %5) #8
  ret i32 %43
}

; Function Attrs: nounwind uwtable
define internal void @_queueitem_clear_data(ptr noundef %0) #0 {
  %2 = alloca ptr, align 8
  store ptr %0, ptr %2, align 8, !tbaa !48
  %3 = load ptr, ptr %2, align 8, !tbaa !48
  %4 = getelementptr inbounds nuw %struct._queueitem, ptr %3, i32 0, i32 1
  %5 = load ptr, ptr %4, align 8, !tbaa !65
  %6 = icmp eq ptr %5, null
  br i1 %6, label %7, label %8

7:                                                ; preds = %1
  br label %15

8:                                                ; preds = %1
  %9 = load ptr, ptr %2, align 8, !tbaa !48
  %10 = getelementptr inbounds nuw %struct._queueitem, ptr %9, i32 0, i32 1
  %11 = load ptr, ptr %10, align 8, !tbaa !65
  %12 = call i32 @_release_xid_data(ptr noundef %11, i32 noundef 0)
  %13 = load ptr, ptr %2, align 8, !tbaa !48
  %14 = getelementptr inbounds nuw %struct._queueitem, ptr %13, i32 0, i32 1
  store ptr null, ptr %14, align 8, !tbaa !65
  br label %15

15:                                               ; preds = %8, %7
  ret void
}

; Function Attrs: nounwind uwtable
define internal void @_queueitem_clear(ptr noundef %0) #0 {
  %2 = alloca ptr, align 8
  store ptr %0, ptr %2, align 8, !tbaa !48
  %3 = load ptr, ptr %2, align 8, !tbaa !48
  %4 = getelementptr inbounds nuw %struct._queueitem, ptr %3, i32 0, i32 4
  store ptr null, ptr %4, align 8, !tbaa !61
  %5 = load ptr, ptr %2, align 8, !tbaa !48
  call void @_queueitem_clear_data(ptr noundef %5)
  ret void
}

; Function Attrs: nounwind uwtable
define internal void @_queueitem_free(ptr noundef %0) #0 {
  %2 = alloca ptr, align 8
  store ptr %0, ptr %2, align 8, !tbaa !48
  %3 = load ptr, ptr %2, align 8, !tbaa !48
  call void @_queueitem_clear(ptr noundef %3)
  %4 = load ptr, ptr %2, align 8, !tbaa !48
  call void @PyMem_RawFree(ptr noundef %4)
  ret void
}

; Function Attrs: nounwind uwtable
define internal void @_queueitem_free_all(ptr noundef %0) #0 {
  %2 = alloca ptr, align 8
  %3 = alloca ptr, align 8
  store ptr %0, ptr %2, align 8, !tbaa !48
  br label %4

4:                                                ; preds = %7, %1
  %5 = load ptr, ptr %2, align 8, !tbaa !48
  %6 = icmp ne ptr %5, null
  br i1 %6, label %7, label %13

7:                                                ; preds = %4
  call void @llvm.lifetime.start.p0(i64 8, ptr %3) #8
  %8 = load ptr, ptr %2, align 8, !tbaa !48
  store ptr %8, ptr %3, align 8, !tbaa !48
  %9 = load ptr, ptr %2, align 8, !tbaa !48
  %10 = getelementptr inbounds nuw %struct._queueitem, ptr %9, i32 0, i32 4
  %11 = load ptr, ptr %10, align 8, !tbaa !61
  store ptr %11, ptr %2, align 8, !tbaa !48
  %12 = load ptr, ptr %3, align 8, !tbaa !48
  call void @_queueitem_free(ptr noundef %12)
  call void @llvm.lifetime.end.p0(i64 8, ptr %3) #8
  br label %4, !llvm.loop !64

13:                                               ; preds = %4
  ret void
}

; Function Attrs: nounwind uwtable
define internal void @_queue_clear(ptr noundef %0) #0 {
  %2 = alloca ptr, align 8
  %3 = alloca %struct._queue, align 8
  store ptr %0, ptr %2, align 8, !tbaa !26
  %4 = load ptr, ptr %2, align 8, !tbaa !26
  %5 = getelementptr inbounds nuw %struct._queue, ptr %4, i32 0, i32 3
  %6 = getelementptr inbounds nuw %struct._queueitems, ptr %5, i32 0, i32 2
  %7 = load ptr, ptr %6, align 8, !tbaa !59
  call void @_queueitem_free_all(ptr noundef %7)
  %8 = load ptr, ptr %2, align 8, !tbaa !26
  %9 = getelementptr inbounds nuw %struct._queue, ptr %8, i32 0, i32 1
  %10 = load ptr, ptr %9, align 8, !tbaa !42
  call void @PyThread_free_lock(ptr noundef %10)
  %11 = load ptr, ptr %2, align 8, !tbaa !26
  call void @llvm.memset.p0.i64(ptr align 8 %3, i8 0, i64 64, i1 false)
  call void @llvm.memcpy.p0.p0.i64(ptr align 8 %11, ptr align 8 %3, i64 64, i1 false), !tbaa.struct !47
  ret void
}

; Function Attrs: nounwind uwtable
define internal void @_queue_free(ptr noundef %0) #0 {
  %2 = alloca ptr, align 8
  store ptr %0, ptr %2, align 8, !tbaa !26
  %3 = load ptr, ptr %2, align 8, !tbaa !26
  call void @_queue_clear(ptr noundef %3)
  %4 = load ptr, ptr %2, align 8, !tbaa !26
  call void @PyMem_RawFree(ptr noundef %4)
  ret void
}

; Function Attrs: nounwind uwtable
define internal void @_queue_kill_and_wait(ptr noundef %0) #0 {
  %2 = alloca ptr, align 8
  store ptr %0, ptr %2, align 8, !tbaa !26
  %3 = load ptr, ptr %2, align 8, !tbaa !26
  %4 = getelementptr inbounds nuw %struct._queue, ptr %3, i32 0, i32 1
  %5 = load ptr, ptr %4, align 8, !tbaa !42
  %6 = call i32 @PyThread_acquire_lock(ptr noundef %5, i32 noundef 1)
  %7 = load ptr, ptr %2, align 8, !tbaa !26
  %8 = getelementptr inbounds nuw %struct._queue, ptr %7, i32 0, i32 2
  store i32 0, ptr %8, align 8, !tbaa !43
  %9 = load ptr, ptr %2, align 8, !tbaa !26
  %10 = getelementptr inbounds nuw %struct._queue, ptr %9, i32 0, i32 1
  %11 = load ptr, ptr %10, align 8, !tbaa !42
  call void @PyThread_release_lock(ptr noundef %11)
  br label %12

12:                                               ; preds = %17, %1
  %13 = load ptr, ptr %2, align 8, !tbaa !26
  %14 = getelementptr inbounds nuw %struct._queue, ptr %13, i32 0, i32 0
  %15 = load i64, ptr %14, align 8, !tbaa !41
  %16 = icmp sgt i64 %15, 0
  br i1 %16, label %17, label %25

17:                                               ; preds = %12
  %18 = load ptr, ptr %2, align 8, !tbaa !26
  %19 = getelementptr inbounds nuw %struct._queue, ptr %18, i32 0, i32 1
  %20 = load ptr, ptr %19, align 8, !tbaa !42
  %21 = call i32 @PyThread_acquire_lock(ptr noundef %20, i32 noundef 1)
  %22 = load ptr, ptr %2, align 8, !tbaa !26
  %23 = getelementptr inbounds nuw %struct._queue, ptr %22, i32 0, i32 1
  %24 = load ptr, ptr %23, align 8, !tbaa !42
  call void @PyThread_release_lock(ptr noundef %24)
  br label %12, !llvm.loop !76

25:                                               ; preds = %12
  ret void
}

; Function Attrs: nounwind uwtable
define internal void @_queuerefs_clear(ptr noundef %0) #0 {
  %2 = alloca ptr, align 8
  %3 = alloca ptr, align 8
  %4 = alloca ptr, align 8
  %5 = alloca ptr, align 8
  store ptr %0, ptr %2, align 8, !tbaa !50
  call void @llvm.lifetime.start.p0(i64 8, ptr %3) #8
  %6 = load ptr, ptr %2, align 8, !tbaa !50
  store ptr %6, ptr %3, align 8, !tbaa !50
  br label %7

7:                                                ; preds = %10, %1
  %8 = load ptr, ptr %3, align 8, !tbaa !50
  %9 = icmp ne ptr %8, null
  br i1 %9, label %10, label %21

10:                                               ; preds = %7
  call void @llvm.lifetime.start.p0(i64 8, ptr %4) #8
  %11 = load ptr, ptr %3, align 8, !tbaa !50
  store ptr %11, ptr %4, align 8, !tbaa !50
  %12 = load ptr, ptr %4, align 8, !tbaa !50
  %13 = getelementptr inbounds nuw %struct._queueref, ptr %12, i32 0, i32 0
  %14 = load ptr, ptr %13, align 8, !tbaa !51
  store ptr %14, ptr %3, align 8, !tbaa !50
  call void @llvm.lifetime.start.p0(i64 8, ptr %5) #8
  %15 = load ptr, ptr %4, align 8, !tbaa !50
  %16 = getelementptr inbounds nuw %struct._queueref, ptr %15, i32 0, i32 3
  %17 = load ptr, ptr %16, align 8, !tbaa !55
  store ptr %17, ptr %5, align 8, !tbaa !26
  %18 = load ptr, ptr %4, align 8, !tbaa !50
  call void @PyMem_RawFree(ptr noundef %18)
  %19 = load ptr, ptr %5, align 8, !tbaa !26
  call void @_queue_kill_and_wait(ptr noundef %19)
  %20 = load ptr, ptr %5, align 8, !tbaa !26
  call void @_queue_free(ptr noundef %20)
  call void @llvm.lifetime.end.p0(i64 8, ptr %5) #8
  call void @llvm.lifetime.end.p0(i64 8, ptr %4) #8
  br label %7, !llvm.loop !143

21:                                               ; preds = %7
  call void @llvm.lifetime.end.p0(i64 8, ptr %3) #8
  ret void
}

; Function Attrs: inlinehint nounwind uwtable
define internal i32 @_Py_atomic_compare_exchange_uint8(ptr noundef %0, ptr noundef %1, i8 noundef zeroext %2) #5 {
  %4 = alloca ptr, align 8
  %5 = alloca ptr, align 8
  %6 = alloca i8, align 1
  %7 = alloca i8, align 1
  %8 = alloca i8, align 1
  store ptr %0, ptr %4, align 8, !tbaa !83
  store ptr %1, ptr %5, align 8, !tbaa !83
  store i8 %2, ptr %6, align 1, !tbaa !73
  %9 = load ptr, ptr %4, align 8, !tbaa !83
  %10 = load ptr, ptr %5, align 8, !tbaa !83
  %11 = load i8, ptr %6, align 1, !tbaa !73
  store i8 %11, ptr %7, align 1, !tbaa !73
  %12 = load i8, ptr %10, align 1
  %13 = load i8, ptr %7, align 1
  %14 = cmpxchg ptr %9, i8 %12, i8 %13 seq_cst seq_cst, align 1
  %15 = extractvalue { i8, i1 } %14, 0
  %16 = extractvalue { i8, i1 } %14, 1
  br i1 %16, label %18, label %17

17:                                               ; preds = %3
  store i8 %15, ptr %10, align 1
  br label %18

18:                                               ; preds = %17, %3
  %19 = zext i1 %16 to i8
  store i8 %19, ptr %8, align 1, !tbaa !137
  %20 = load i8, ptr %8, align 1, !tbaa !137, !range !139, !noundef !140
  %21 = trunc i8 %20 to i1
  %22 = zext i1 %21 to i32
  ret i32 %22
}

; Function Attrs: inlinehint nounwind uwtable
define internal void @_PyMutex_Unlock(ptr noundef %0) #5 {
  %2 = alloca ptr, align 8
  %3 = alloca i8, align 1
  store ptr %0, ptr %2, align 8, !tbaa !134
  call void @llvm.lifetime.start.p0(i64 1, ptr %3) #8
  store i8 1, ptr %3, align 1, !tbaa !73
  %4 = load ptr, ptr %2, align 8, !tbaa !134
  %5 = getelementptr inbounds nuw %struct.PyMutex, ptr %4, i32 0, i32 0
  %6 = call i32 @_Py_atomic_compare_exchange_uint8(ptr noundef %5, ptr noundef %3, i8 noundef zeroext 0)
  %7 = icmp ne i32 %6, 0
  br i1 %7, label %10, label %8

8:                                                ; preds = %1
  %9 = load ptr, ptr %2, align 8, !tbaa !134
  call void @PyMutex_Unlock(ptr noundef %9)
  br label %10

10:                                               ; preds = %8, %1
  call void @llvm.lifetime.end.p0(i64 1, ptr %3) #8
  ret void
}

; Function Attrs: nounwind uwtable
define internal void @_queues_fini(ptr noundef %0, ptr noundef %1) #0 {
  %3 = alloca ptr, align 8
  %4 = alloca ptr, align 8
  %5 = alloca ptr, align 8
  %6 = alloca %struct._queues, align 8
  store ptr %0, ptr %3, align 8, !tbaa !39
  store ptr %1, ptr %4, align 8, !tbaa !8
  call void @llvm.lifetime.start.p0(i64 8, ptr %5) #8
  %7 = load ptr, ptr %3, align 8, !tbaa !39
  %8 = getelementptr inbounds nuw %struct._queues, ptr %7, i32 0, i32 0
  %9 = load ptr, ptr %8, align 8, !tbaa !49
  store ptr %9, ptr %5, align 8, !tbaa !8
  %10 = load ptr, ptr %5, align 8, !tbaa !8
  %11 = call i32 @PyThread_acquire_lock(ptr noundef %10, i32 noundef 1)
  %12 = load ptr, ptr %3, align 8, !tbaa !39
  %13 = getelementptr inbounds nuw %struct._queues, ptr %12, i32 0, i32 2
  %14 = load i64, ptr %13, align 8, !tbaa !58
  %15 = icmp sgt i64 %14, 0
  br i1 %15, label %16, label %20

16:                                               ; preds = %2
  %17 = load ptr, ptr %3, align 8, !tbaa !39
  %18 = getelementptr inbounds nuw %struct._queues, ptr %17, i32 0, i32 1
  %19 = load ptr, ptr %18, align 8, !tbaa !57
  call void @_queuerefs_clear(ptr noundef %19)
  br label %20

20:                                               ; preds = %16, %2
  %21 = load ptr, ptr %3, align 8, !tbaa !39
  call void @llvm.memset.p0.i64(ptr align 8 %6, i8 0, i64 32, i1 false)
  call void @llvm.memcpy.p0.p0.i64(ptr align 8 %21, ptr align 8 %6, i64 32, i1 false), !tbaa.struct !136
  %22 = load ptr, ptr %5, align 8, !tbaa !8
  call void @PyThread_release_lock(ptr noundef %22)
  %23 = load ptr, ptr %5, align 8, !tbaa !8
  %24 = load ptr, ptr %4, align 8, !tbaa !8
  store ptr %23, ptr %24, align 8, !tbaa !8
  call void @llvm.lifetime.end.p0(i64 8, ptr %5) #8
  ret void
}

; Function Attrs: inlinehint nounwind uwtable
define internal void @_PyMutex_Lock(ptr noundef %0) #5 {
  %2 = alloca ptr, align 8
  %3 = alloca i8, align 1
  store ptr %0, ptr %2, align 8, !tbaa !134
  call void @llvm.lifetime.start.p0(i64 1, ptr %3) #8
  store i8 0, ptr %3, align 1, !tbaa !73
  %4 = load ptr, ptr %2, align 8, !tbaa !134
  %5 = getelementptr inbounds nuw %struct.PyMutex, ptr %4, i32 0, i32 0
  %6 = call i32 @_Py_atomic_compare_exchange_uint8(ptr noundef %5, ptr noundef %3, i8 noundef zeroext 1)
  %7 = icmp ne i32 %6, 0
  br i1 %7, label %10, label %8

8:                                                ; preds = %1
  %9 = load ptr, ptr %2, align 8, !tbaa !134
  call void @PyMutex_Lock(ptr noundef %9)
  br label %10

10:                                               ; preds = %8, %1
  call void @llvm.lifetime.end.p0(i64 1, ptr %3) #8
  ret void
}

; Function Attrs: nounwind uwtable
define internal void @_globals_fini() #0 {
  %1 = alloca ptr, align 8
  call void @_PyMutex_Lock(ptr noundef @_globals)
  %2 = load i32, ptr getelementptr inbounds nuw (%struct.globals, ptr @_globals, i32 0, i32 1), align 4, !tbaa !133
  %3 = add i32 %2, -1
  store i32 %3, ptr getelementptr inbounds nuw (%struct.globals, ptr @_globals, i32 0, i32 1), align 4, !tbaa !133
  %4 = load i32, ptr getelementptr inbounds nuw (%struct.globals, ptr @_globals, i32 0, i32 1), align 4, !tbaa !133
  %5 = icmp eq i32 %4, 0
  br i1 %5, label %6, label %8

6:                                                ; preds = %0
  call void @llvm.lifetime.start.p0(i64 8, ptr %1) #8
  call void @_queues_fini(ptr noundef getelementptr inbounds nuw (%struct.globals, ptr @_globals, i32 0, i32 2), ptr noundef %1)
  %7 = load ptr, ptr %1, align 8, !tbaa !8
  call void @PyThread_free_lock(ptr noundef %7)
  call void @llvm.lifetime.end.p0(i64 8, ptr %1) #8
  br label %8

8:                                                ; preds = %6, %0
  call void @_PyMutex_Unlock(ptr noundef @_globals)
  ret void
}