; Function Attrs: nounwind uwtable
define internal fastcc void @_globals_fini() unnamed_addr #0 {
  %1 = cmpxchg ptr @_globals, i8 0, i8 1 seq_cst seq_cst, align 1
  %2 = extractvalue { i8, i1 } %1, 1
  br i1 %2, label %_PyMutex_Lock.exit, label %3

3:                                                ; preds = %0
  tail call void @PyMutex_Lock(ptr noundef nonnull @_globals) #6
  br label %_PyMutex_Lock.exit

_PyMutex_Lock.exit:                               ; preds = %0, %3
  %4 = load i32, ptr getelementptr inbounds nuw (i8, ptr @_globals, i64 4), align 4, !tbaa !102
  %5 = add i32 %4, -1
  store i32 %5, ptr getelementptr inbounds nuw (i8, ptr @_globals, i64 4), align 4, !tbaa !102
  %6 = icmp eq i32 %5, 0
  br i1 %6, label %7, label %38

7:                                                ; preds = %_PyMutex_Lock.exit
  %8 = load ptr, ptr getelementptr inbounds nuw (i8, ptr @_globals, i64 8), align 8, !tbaa !20
  %9 = tail call i32 @PyThread_acquire_lock(ptr noundef %8, i32 noundef 1) #6
  %10 = load i64, ptr getelementptr inbounds nuw (i8, ptr @_globals, i64 24), align 8, !tbaa !42
  %11 = icmp slt i64 %10, 1
  %12 = load ptr, ptr getelementptr inbounds nuw (i8, ptr @_globals, i64 16), align 8
  %.not8.i.i = icmp eq ptr %12, null
  %or.cond.i = select i1 %11, i1 true, i1 %.not8.i.i
  br i1 %or.cond.i, label %_queues_fini.exit, label %.lr.ph.i.i

.lr.ph.i.i:                                       ; preds = %7, %_queue_free.exit.i.i
  %.09.i.i = phi ptr [ %13, %_queue_free.exit.i.i ], [ %12, %7 ]
  %13 = load ptr, ptr %.09.i.i, align 8, !tbaa !40
  %14 = getelementptr inbounds nuw i8, ptr %.09.i.i, i64 24
  %15 = load ptr, ptr %14, align 8, !tbaa !49
  tail call void @PyMem_RawFree(ptr noundef nonnull %.09.i.i) #6
  %16 = getelementptr inbounds nuw i8, ptr %15, i64 8
  %17 = load ptr, ptr %16, align 8, !tbaa !35
  %18 = tail call i32 @PyThread_acquire_lock(ptr noundef %17, i32 noundef 1) #6
  %19 = getelementptr inbounds nuw i8, ptr %15, i64 16
  store i32 0, ptr %19, align 8, !tbaa !64
  %20 = load ptr, ptr %16, align 8, !tbaa !35
  tail call void @PyThread_release_lock(ptr noundef %20) #6
  %21 = load i64, ptr %15, align 8, !tbaa !63
  %22 = icmp sgt i64 %21, 0
  br i1 %22, label %.lr.ph.i.i.i, label %_queue_kill_and_wait.exit.i.i

.lr.ph.i.i.i:                                     ; preds = %.lr.ph.i.i, %.lr.ph.i.i.i
  %23 = load ptr, ptr %16, align 8, !tbaa !35
  %24 = tail call i32 @PyThread_acquire_lock(ptr noundef %23, i32 noundef 1) #6
  %25 = load ptr, ptr %16, align 8, !tbaa !35
  tail call void @PyThread_release_lock(ptr noundef %25) #6
  %26 = load i64, ptr %15, align 8, !tbaa !63
  %27 = icmp sgt i64 %26, 0
  br i1 %27, label %.lr.ph.i.i.i, label %_queue_kill_and_wait.exit.i.i, !llvm.loop !86

_queue_kill_and_wait.exit.i.i:                    ; preds = %.lr.ph.i.i.i, %.lr.ph.i.i
  %28 = getelementptr inbounds nuw i8, ptr %15, i64 40
  %29 = load ptr, ptr %28, align 8, !tbaa !24
  %.not4.i.i.i.i.i = icmp eq ptr %29, null
  br i1 %.not4.i.i.i.i.i, label %_queue_free.exit.i.i, label %.lr.ph.i.i.i.i.i

.lr.ph.i.i.i.i.i:                                 ; preds = %_queue_kill_and_wait.exit.i.i, %_queueitem_free.exit.i.i.i.i.i
  %.05.i.i.i.i.i = phi ptr [ %31, %_queueitem_free.exit.i.i.i.i.i ], [ %29, %_queue_kill_and_wait.exit.i.i ]
  %30 = getelementptr inbounds nuw i8, ptr %.05.i.i.i.i.i, i64 24
  %31 = load ptr, ptr %30, align 8, !tbaa !29
  store ptr null, ptr %30, align 8, !tbaa !29
  %32 = getelementptr inbounds nuw i8, ptr %.05.i.i.i.i.i, i64 8
  %33 = load ptr, ptr %32, align 8, !tbaa !32
  %34 = icmp eq ptr %33, null
  br i1 %34, label %_queueitem_free.exit.i.i.i.i.i, label %35

35:                                               ; preds = %.lr.ph.i.i.i.i.i
  %36 = tail call i32 @_PyXIData_Release(ptr noundef nonnull %33) #6
  store ptr null, ptr %32, align 8, !tbaa !32
  br label %_queueitem_free.exit.i.i.i.i.i

_queueitem_free.exit.i.i.i.i.i:                   ; preds = %35, %.lr.ph.i.i.i.i.i
  tail call void @PyMem_RawFree(ptr noundef nonnull %.05.i.i.i.i.i) #6
  %.not.i.i.i.i.i = icmp eq ptr %31, null
  br i1 %.not.i.i.i.i.i, label %_queue_free.exit.i.i, label %.lr.ph.i.i.i.i.i, !llvm.loop !33

_queue_free.exit.i.i:                             ; preds = %_queueitem_free.exit.i.i.i.i.i, %_queue_kill_and_wait.exit.i.i
  %37 = load ptr, ptr %16, align 8, !tbaa !35
  tail call void @PyThread_free_lock(ptr noundef %37) #6
  tail call void @llvm.memset.p0.i64(ptr noundef nonnull align 8 dereferenceable(64) %15, i8 0, i64 64, i1 false)
  tail call void @PyMem_RawFree(ptr noundef nonnull %15) #6
  %.not.i.i = icmp eq ptr %13, null
  br i1 %.not.i.i, label %_queues_fini.exit, label %.lr.ph.i.i, !llvm.loop !106

_queues_fini.exit:                                ; preds = %_queue_free.exit.i.i, %7
  tail call void @llvm.memset.p0.i64(ptr noundef nonnull align 8 dereferenceable(32) getelementptr inbounds nuw (i8, ptr @_globals, i64 8), i8 0, i64 32, i1 false)
  tail call void @PyThread_release_lock(ptr noundef %8) #6
  tail call void @PyThread_free_lock(ptr noundef %8) #6
  br label %38

38:                                               ; preds = %_queues_fini.exit, %_PyMutex_Lock.exit
  %39 = cmpxchg ptr @_globals, i8 1, i8 0 seq_cst seq_cst, align 1
  %40 = extractvalue { i8, i1 } %39, 1
  br i1 %40, label %_PyMutex_Unlock.exit, label %41

41:                                               ; preds = %38
  tail call void @PyMutex_Unlock(ptr noundef nonnull @_globals) #6
  br label %_PyMutex_Unlock.exit

_PyMutex_Unlock.exit:                             ; preds = %38, %41
  ret void
}